Certificate:
    Data:
        Version: 3 (0x2)
        Serial Number: 4096 (0x1000)
    Signature Algorithm: sha1WithRSAEncryption
        Issuer: C=US, ST=MD, L=Rockville, O=Localhost, CN=Localhost Root CA/emailAddress=root@localhost
        Validity
            Not Before: Oct 29 17:59:42 2012 GMT
            Not After : Oct 29 17:59:42 2013 GMT
        Subject: C=US, ST=MD, O=Localhost, CN=provider/emailAddress=provider@localhost
        Subject Public Key Info:
            Public Key Algorithm: rsaEncryption
                Public-Key: (1024 bit)
                Modulus:
                    00:d6:7b:e0:4f:5f:41:94:13:b4:36:cb:56:94:0c:
                    15:f7:86:8f:ed:87:31:4e:c9:31:c2:a2:f2:c3:eb:
                    b6:3c:74:64:c7:5e:29:af:6e:80:04:e1:da:66:06:
                    5c:95:ad:28:14:e7:e6:df:aa:a6:e7:06:f0:33:d9:
                    6e:40:fc:bd:ee:45:08:66:13:34:61:4c:3a:c3:c9:
                    af:c2:59:a2:5a:e4:2b:3f:90:4f:d3:bb:a1:c3:94:
                    a1:99:1e:81:5a:be:a7:24:b7:9c:32:26:79:32:ca:
                    1a:4f:73:4d:2d:22:95:e7:04:18:6a:51:53:70:c7:
                    31:b8:3e:52:85:62:5e:3c:f1
                Exponent: 65537 (0x10001)
        X509v3 extensions:
            X509v3 Basic Constraints: 
                CA:FALSE
            Netscape Comment: 
                OpenSSL Generated Certificate
            X509v3 Subject Key Identifier: 
                04:17:62:4A:E6:6F:42:B4:C9:81:A7:F9:12:12:00:AC:DF:A2:9F:69
            X509v3 Authority Key Identifier: 
                keyid:6E:DF:4B:A7:9F:54:02:DF:BE:76:29:98:A2:C4:8D:AB:F0:FE:36:E7

    Signature Algorithm: sha1WithRSAEncryption
         a2:60:e9:02:b0:f2:4f:fa:91:c0:01:87:82:d3:88:b5:40:06:
         dc:42:1b:ca:92:f4:96:52:b9:0b:75:2d:cc:37:ad:ed:85:05:
         9f:ce:f5:1b:88:47:7d:22:52:e4:9e:1d:b0:ba:7d:bf:a7:e5:
         44:6f:17:6c:a6:d1:c0:41:d0:53:d2:68:91:4a:53:c5:1d:cb:
         2c:67:ef:9e:07:24:1d:71:82:55:64:45:2a:8d:19:c4:2e:80:
         9f:b8:95:63:04:bb:d3:9e:f1:6d:7d:1a:9d:43:42:fc:73:c1:
         64:2a:07:41:2d:a0:a3:bd:cf:18:57:03:92:0d:68:6a:ed:aa:
         50:c3
-----BEGIN CERTIFICATE-----
MIIC0zCCAjygAwIBAgICEAAwDQYJKoZIhvcNAQEFBQAwfTELMAkGA1UEBhMCVVMx
CzAJBgNVBAgMAk1EMRIwEAYDVQQHDAlSb2NrdmlsbGUxEjAQBgNVBAoMCUxvY2Fs
aG9zdDEaMBgGA1UEAwwRTG9jYWxob3N0IFJvb3QgQ0ExHTAbBgkqhkiG9w0BCQEW
DnJvb3RAbG9jYWxob3N0MB4XDTEyMTAyOTE3NTk0MloXDTEzMTAyOTE3NTk0Mlow
ZDELMAkGA1UEBhMCVVMxCzAJBgNVBAgMAk1EMRIwEAYDVQQKDAlMb2NhbGhvc3Qx
ETAPBgNVBAMMCHByb3ZpZGVyMSEwHwYJKoZIhvcNAQkBFhJwcm92aWRlckBsb2Nh
bGhvc3QwgZ8wDQYJKoZIhvcNAQEBBQADgY0AMIGJAoGBANZ74E9fQZQTtDbLVpQM
FfeGj+2HMU7JMcKi8sPrtjx0ZMdeKa9ugATh2mYGXJWtKBTn5t+qpucG8DPZbkD8
ve5FCGYTNGFMOsPJr8JZolrkKz+QT9O7ocOUoZkegVq+pyS3nDImeTLKGk9zTS0i
lecEGGpRU3DHMbg+UoViXjzxAgMBAAGjezB5MAkGA1UdEwQCMAAwLAYJYIZIAYb4
QgENBB8WHU9wZW5TU0wgR2VuZXJhdGVkIENlcnRpZmljYXRlMB0GA1UdDgQWBBQE
F2JK5m9CtMmBp/kSEgCs36KfaTAfBgNVHSMEGDAWgBRu30unn1QC3752KZiixI2r
8P425zANBgkqhkiG9w0BAQUFAAOBgQCiYOkCsPJP+pHAAYeC04i1QAbcQhvKkvSW
UrkLdS3MN63thQWfzvUbiEd9IlLknh2wun2/p+VEbxdsptHAQdBT0miRSlPFHcss
Z++eByQdcYJVZEUqjRnELoCfuJVjBLvTnvFtfRqdQ0L8c8FkKgdBLaCjvc8YVwOS
DWhq7apQww==
-----END CERTIFICATE-----
